target datalayout = "e-m:e-p270:32:32-p271:32:32-p272:64:64-i64:64-i128:128-f80:128-n8:16:32:64-S128"
target triple = "x86_64-pc-linux-gnu"

%struct.pg_conn = type { ptr, ptr, ptr, ptr, ptr, ptr, ptr, ptr, ptr, ptr, ptr, ptr, ptr, ptr, ptr, ptr, ptr, ptr, ptr, ptr, ptr, ptr, ptr, ptr, ptr, ptr, ptr, ptr, ptr, ptr, ptr, ptr, ptr, ptr, ptr, ptr, ptr, ptr, ptr, ptr, ptr, ptr, ptr, i8, ptr, i32, %struct.PGNoticeHooks, ptr, i32, i32, i32, i32, i32, [6 x i8], i8, i8, i32, i8, i8, i32, i8, i32, ptr, ptr, i32, i32, ptr, ptr, ptr, ptr, ptr, i32, %struct.SockAddr, %struct.SockAddr, i32, i32, i8, i8, i8, i8, i8, i8, ptr, i8, i32, [1 x ptr], i8, i8, ptr, ptr, i32, i32, i32, i8, i8, i32, i32, ptr, i8, i64, ptr, i64, ptr, i32, i32, ptr, i32, i8, i32, i32, i32, i32, ptr, %struct.pg_prng_state, ptr, i32, i32, i32, i32, ptr, i32, i32, i32, i32, ptr, i32, ptr, i8, ptr, ptr, ptr, i32, i8, i8, i8, i8, i8, i8, i8, i8, %struct.PQExpBufferData, i32, %struct.PQExpBufferData }
%struct.PGNoticeHooks = type { ptr, ptr, ptr, ptr }
%struct.SockAddr = type { %struct.sockaddr_storage, i32 }
%struct.sockaddr_storage = type { i16, [118 x i8], i64 }
%struct.pg_prng_state = type { i64, i64 }
%struct.PQExpBufferData = type { ptr, i64, i64 }
%struct.timeval = type { i64, i64 }

; Function Attrs: nounwind uwtable
define internal void @libpq_prng_init(ptr noundef %0) #0 {
  %2 = alloca ptr, align 8
  %3 = alloca i64, align 8
  %4 = alloca %struct.timeval, align 8
  %5 = alloca i32, align 4
  store ptr %0, ptr %2, align 8
  call void @llvm.lifetime.start.p0(i64 8, ptr %3) #12
  call void @llvm.lifetime.start.p0(i64 16, ptr %4) #12
  call void @llvm.memset.p0.i64(ptr align 8 %4, i8 0, i64 16, i1 false)
  %6 = load ptr, ptr %2, align 8
  %7 = getelementptr inbounds nuw %struct.pg_conn, ptr %6, i32 0, i32 113
  %8 = call zeroext i1 @pg_strong_random(ptr noundef %7, i64 noundef 16)
  br i1 %8, label %9, label %13

9:                                                ; preds = %1
  %10 = load ptr, ptr %2, align 8
  %11 = getelementptr inbounds nuw %struct.pg_conn, ptr %10, i32 0, i32 113
  %12 = call zeroext i1 @pg_prng_seed_check(ptr noundef %11)
  br i1 %12, label %14, label %15

13:                                               ; preds = %1
  br i1 false, label %14, label %15

14:                                               ; preds = %13, %9
  store i32 1, ptr %5, align 4
  br label %31

15:                                               ; preds = %13, %9
  %16 = call i32 @gettimeofday(ptr noundef %4, ptr noundef null) #12
  %17 = load ptr, ptr %2, align 8
  %18 = ptrtoint ptr %17 to i64
  %19 = call i32 @getpid() #12
  %20 = sext i32 %19 to i64
  %21 = xor i64 %18, %20
  %22 = getelementptr inbounds nuw %struct.timeval, ptr %4, i32 0, i32 1
  %23 = load i64, ptr %22, align 8
  %24 = xor i64 %21, %23
  %25 = getelementptr inbounds nuw %struct.timeval, ptr %4, i32 0, i32 0
  %26 = load i64, ptr %25, align 8
  %27 = xor i64 %24, %26
  store i64 %27, ptr %3, align 8
  %28 = load ptr, ptr %2, align 8
  %29 = getelementptr inbounds nuw %struct.pg_conn, ptr %28, i32 0, i32 113
  %30 = load i64, ptr %3, align 8
  call void @pg_prng_seed(ptr noundef %29, i64 noundef %30)
  store i32 0, ptr %5, align 4
  br label %31

31:                                               ; preds = %15, %14
  call void @llvm.lifetime.end.p0(i64 16, ptr %4) #12
  call void @llvm.lifetime.end.p0(i64 8, ptr %3) #12
  %32 = load i32, ptr %5, align 4
  switch i32 %32, label %34 [
    i32 0, label %33
    i32 1, label %33
  ]

33:                                               ; preds = %31, %31
  ret void

34:                                               ; preds = %31
  unreachable
}