; Function Attrs: nounwind uwtable
define internal fastcc void @libpq_prng_init(ptr noundef %0) unnamed_addr #0 {
  %2 = alloca %struct.timeval, align 8
  call void @llvm.lifetime.start.p0(i64 16, ptr nonnull %2) #25
  call void @llvm.memset.p0.i64(ptr noundef nonnull align 8 dereferenceable(16) %2, i8 0, i64 16, i1 false)
  %3 = getelementptr inbounds nuw i8, ptr %0, i64 984
  %4 = tail call zeroext i1 @pg_strong_random(ptr noundef nonnull %3, i64 noundef 16) #25
  br i1 %4, label %5, label %7

5:                                                ; preds = %1
  %6 = tail call zeroext i1 @pg_prng_seed_check(ptr noundef nonnull %3) #25
  br i1 %6, label %18, label %7

7:                                                ; preds = %1, %5
  %8 = call i32 @gettimeofday(ptr noundef nonnull %2, ptr noundef null) #25
  %9 = ptrtoint ptr %0 to i64
  %10 = tail call i32 @getpid() #25
  %11 = sext i32 %10 to i64
  %12 = xor i64 %11, %9
  %13 = getelementptr inbounds nuw i8, ptr %2, i64 8
  %14 = load i64, ptr %13, align 8
  %15 = xor i64 %12, %14
  %16 = load i64, ptr %2, align 8
  %17 = xor i64 %15, %16
  tail call void @pg_prng_seed(ptr noundef nonnull %3, i64 noundef %17) #25
  br label %18

18:                                               ; preds = %5, %7
  call void @llvm.lifetime.end.p0(i64 16, ptr nonnull %2) #25
  ret void
}